target datalayout = "e-m:e-p270:32:32-p271:32:32-p272:64:64-i64:64-i128:128-f80:128-n8:16:32:64-S128"
target triple = "x86_64-pc-linux-gnu"

%class.cmCursesStringWidget = type <{ %class.cmCursesWidget.base, i8, [3 x i8], %"class.std::__cxx11::basic_string", i8, [7 x i8] }>
%class.cmCursesWidget.base = type <{ ptr, i32, [4 x i8], %"class.std::__cxx11::basic_string", ptr, i32 }>
%"class.std::__cxx11::basic_string" = type { %"struct.std::__cxx11::basic_string<char>::_Alloc_hider", i64, %union.anon }
%"struct.std::__cxx11::basic_string<char>::_Alloc_hider" = type { ptr }
%union.anon = type { i64, [8 x i8] }
%struct._win_st = type { i16, i16, i16, i16, i16, i16, i16, i32, i32, i8, i8, i8, i8, i8, i8, i8, i8, i8, i32, ptr, i16, i16, i32, i32, ptr, %"struct._win_st::pdat", i16, %struct.cchar_t, i32 }
%"struct._win_st::pdat" = type { i16, i16, i16, i16, i16, i16 }
%struct.cchar_t = type { i32, [5 x i32], i32 }

@stdscr = external global ptr, align 8
@__const._ZN20cmCursesStringWidget9PrintKeysEv.fmt_s = private unnamed_addr constant [3 x i8] c"%s\00", align 1
@.str.3 = private unnamed_addr constant [41 x i8] c"Editing option, press [enter] to confirm\00", align 1
@.str.4 = private unnamed_addr constant [38 x i8] c"                press [esc] to cancel\00", align 1

; Function Attrs: mustprogress uwtable
define linkonce_odr dso_local void @_Z11curses_movejj(i32 noundef %0, i32 noundef %1) #0 comdat {
  %3 = alloca i32, align 4
  %4 = alloca i32, align 4
  store i32 %0, ptr %3, align 4
  store i32 %1, ptr %4, align 4
  %5 = load i32, ptr %3, align 4
  %6 = load i32, ptr %4, align 4
  %7 = call i32 @move(i32 noundef %5, i32 noundef %6)
  ret void
}

; Function Attrs: mustprogress uwtable
define dso_local noundef zeroext i1 @_ZN20cmCursesStringWidget9PrintKeysEv(ptr noundef nonnull align 8 dereferenceable(97) %0) unnamed_addr #0 align 2 {
  %2 = alloca i1, align 1
  %3 = alloca ptr, align 8
  %4 = alloca i32, align 4
  %5 = alloca i32, align 4
  %6 = alloca [3 x i8], align 1
  store ptr %0, ptr %3, align 8
  %7 = load ptr, ptr %3, align 8
  %8 = load ptr, ptr @stdscr, align 8
  %9 = icmp ne ptr null, %8
  br i1 %9, label %10, label %16

10:                                               ; preds = %1
  %11 = load ptr, ptr @stdscr, align 8
  %12 = getelementptr inbounds %struct._win_st, ptr %11, i32 0, i32 2
  %13 = load i16, ptr %12, align 4
  %14 = sext i16 %13 to i32
  %15 = add nsw i32 %14, 1
  br label %17

16:                                               ; preds = %1
  br label %17

17:                                               ; preds = %16, %10
  %18 = phi i32 [ %15, %10 ], [ -1, %16 ]
  store i32 %18, ptr %5, align 4
  %19 = load ptr, ptr @stdscr, align 8
  %20 = icmp ne ptr null, %19
  br i1 %20, label %21, label %27

21:                                               ; preds = %17
  %22 = load ptr, ptr @stdscr, align 8
  %23 = getelementptr inbounds %struct._win_st, ptr %22, i32 0, i32 3
  %24 = load i16, ptr %23, align 2
  %25 = sext i16 %24 to i32
  %26 = add nsw i32 %25, 1
  br label %28

27:                                               ; preds = %17
  br label %28

28:                                               ; preds = %27, %21
  %29 = phi i32 [ %26, %21 ], [ -1, %27 ]
  store i32 %29, ptr %4, align 4
  %30 = load i32, ptr %4, align 4
  %31 = icmp slt i32 %30, 65
  br i1 %31, label %35, label %32

32:                                               ; preds = %28
  %33 = load i32, ptr %5, align 4
  %34 = icmp slt i32 %33, 6
  br i1 %34, label %35, label %36

35:                                               ; preds = %32, %28
  store i1 false, ptr %2, align 1
  br label %62

36:                                               ; preds = %32
  %37 = getelementptr inbounds %class.cmCursesStringWidget, ptr %7, i32 0, i32 1
  %38 = load i8, ptr %37, align 4
  %39 = trunc i8 %38 to i1
  br i1 %39, label %40, label %61

40:                                               ; preds = %36
  call void @llvm.memcpy.p0.p0.i64(ptr align 1 %6, ptr align 1 @__const._ZN20cmCursesStringWidget9PrintKeysEv.fmt_s, i64 3, i1 false)
  %41 = load i32, ptr %5, align 4
  %42 = sub nsw i32 %41, 4
  call void @_Z11curses_movejj(i32 noundef %42, i32 noundef 0)
  %43 = load ptr, ptr @stdscr, align 8
  %44 = call i32 @wclrtoeol(ptr noundef %43)
  %45 = load i32, ptr %5, align 4
  %46 = sub nsw i32 %45, 3
  call void @_Z11curses_movejj(i32 noundef %46, i32 noundef 0)
  %47 = getelementptr inbounds [3 x i8], ptr %6, i64 0, i64 0
  %48 = call i32 (ptr, ...) @printw(ptr noundef %47, ptr noundef @.str.3)
  %49 = load ptr, ptr @stdscr, align 8
  %50 = call i32 @wclrtoeol(ptr noundef %49)
  %51 = load i32, ptr %5, align 4
  %52 = sub nsw i32 %51, 2
  call void @_Z11curses_movejj(i32 noundef %52, i32 noundef 0)
  %53 = getelementptr inbounds [3 x i8], ptr %6, i64 0, i64 0
  %54 = call i32 (ptr, ...) @printw(ptr noundef %53, ptr noundef @.str.4)
  %55 = load ptr, ptr @stdscr, align 8
  %56 = call i32 @wclrtoeol(ptr noundef %55)
  %57 = load i32, ptr %5, align 4
  %58 = sub nsw i32 %57, 1
  call void @_Z11curses_movejj(i32 noundef %58, i32 noundef 0)
  %59 = load ptr, ptr @stdscr, align 8
  %60 = call i32 @wclrtoeol(ptr noundef %59)
  store i1 true, ptr %2, align 1
  br label %62

61:                                               ; preds = %36
  store i1 false, ptr %2, align 1
  br label %62

62:                                               ; preds = %61, %40, %35
  %63 = load i1, ptr %2, align 1
  ret i1 %63
}