; Function Attrs: mustprogress uwtable
define dso_local noundef zeroext i1 @_ZN20cmCursesStringWidget9PrintKeysEv(ptr nocapture noundef nonnull readonly align 8 dereferenceable(97) %0) unnamed_addr #0 align 2 {
  %2 = alloca [3 x i8], align 1
  %3 = load ptr, ptr @stdscr, align 8
  %.not = icmp eq ptr %3, null
  br i1 %.not, label %.thread13, label %4

4:                                                ; preds = %1
  %5 = getelementptr inbounds i8, ptr %3, i64 4
  %6 = load i16, ptr %5, align 4
  %7 = sext i16 %6 to i32
  %8 = getelementptr inbounds i8, ptr %3, i64 6
  %9 = load i16, ptr %8, align 2
  %10 = icmp slt i16 %9, 64
  %11 = icmp slt i16 %6, 5
  %or.cond = select i1 %10, i1 true, i1 %11
  br i1 %or.cond, label %.thread13, label %12

12:                                               ; preds = %4
  %13 = getelementptr inbounds i8, ptr %0, i64 60
  %14 = load i8, ptr %13, align 4
  %15 = and i8 %14, 1
  %.not12 = icmp eq i8 %15, 0
  br i1 %.not12, label %.thread13, label %16

16:                                               ; preds = %12
  call void @llvm.memcpy.p0.p0.i64(ptr noundef nonnull align 1 dereferenceable(3) %2, ptr noundef nonnull align 1 dereferenceable(3) @__const._ZN20cmCursesStringWidget9PrintKeysEv.fmt_s, i64 3, i1 false)
  %17 = add nsw i32 %7, -3
  %18 = tail call i32 @move(i32 noundef %17, i32 noundef 0)
  %19 = load ptr, ptr @stdscr, align 8
  %20 = tail call i32 @wclrtoeol(ptr noundef %19)
  %21 = add nsw i32 %7, -2
  %22 = tail call i32 @move(i32 noundef %21, i32 noundef 0)
  %23 = call i32 (ptr, ...) @printw(ptr noundef nonnull %2, ptr noundef nonnull @.str.3)
  %24 = load ptr, ptr @stdscr, align 8
  %25 = call i32 @wclrtoeol(ptr noundef %24)
  %26 = add nsw i32 %7, -1
  %27 = call i32 @move(i32 noundef %26, i32 noundef 0)
  %28 = call i32 (ptr, ...) @printw(ptr noundef nonnull %2, ptr noundef nonnull @.str.4)
  %29 = load ptr, ptr @stdscr, align 8
  %30 = call i32 @wclrtoeol(ptr noundef %29)
  %31 = call i32 @move(i32 noundef %7, i32 noundef 0)
  %32 = load ptr, ptr @stdscr, align 8
  %33 = call i32 @wclrtoeol(ptr noundef %32)
  br label %.thread13

.thread13:                                        ; preds = %1, %12, %4, %16
  %.0 = phi i1 [ true, %16 ], [ false, %4 ], [ false, %12 ], [ false, %1 ]
  ret i1 %.0
}